; Function Attrs: nounwind uwtable
define dso_local i64 @SysCacheGetAttrNotNull(i32 noundef %0, ptr noundef %1, i16 noundef signext %2) local_unnamed_addr #0 {
  %4 = alloca i8, align 1
  call void @llvm.lifetime.start.p0(i64 1, ptr nonnull %4) #11
  %or.cond.i = icmp ugt i32 %0, 84
  br i1 %or.cond.i, label %9, label %5

5:                                                ; preds = %3
  %6 = zext nneg i32 %0 to i64
  %7 = getelementptr inbounds nuw [85 x ptr], ptr @SysCache, i64 0, i64 %6
  %8 = load ptr, ptr %7, align 8
  %.not.i = icmp eq ptr %8, null
  br i1 %.not.i, label %9, label %12

9:                                                ; preds = %5, %3
  %10 = tail call zeroext i1 @errstart_cold(i32 noundef 21, ptr noundef null) #12
  tail call void @llvm.assume(i1 %10)
  %11 = tail call i32 (ptr, ...) @errmsg_internal(ptr noundef nonnull @.str.2, i32 noundef %0) #11
  tail call void @errfinish(ptr noundef nonnull @.str.1, i32 noundef 612, ptr noundef nonnull @__func__.SysCacheGetAttr) #11
  unreachable

12:                                               ; preds = %5
  %13 = getelementptr inbounds nuw i8, ptr %8, i64 8
  %14 = load ptr, ptr %13, align 8
  %.not11.i = icmp eq ptr %14, null
  br i1 %.not11.i, label %15, label %SysCacheGetAttr.exit

15:                                               ; preds = %12
  tail call void @InitCatCachePhase2(ptr noundef nonnull %8, i1 noundef zeroext false) #11
  %.pre.i = load ptr, ptr %7, align 8
  %.phi.trans.insert.i = getelementptr inbounds nuw i8, ptr %.pre.i, i64 8
  %.pre12.i = load ptr, ptr %.phi.trans.insert.i, align 8
  br label %SysCacheGetAttr.exit

SysCacheGetAttr.exit:                             ; preds = %12, %15
  %16 = phi ptr [ %.pre12.i, %15 ], [ %14, %12 ]
  %17 = sext i16 %2 to i32
  %18 = call fastcc i64 @heap_getattr(ptr noundef %1, i32 noundef %17, ptr noundef %16, ptr noundef nonnull %4)
  %19 = load i8, ptr %4, align 1, !range !8, !noundef !9
  %20 = trunc nuw i8 %19 to i1
  br i1 %20, label %21, label %38

21:                                               ; preds = %SysCacheGetAttr.exit
  %22 = call zeroext i1 @errstart_cold(i32 noundef 21, ptr noundef null) #12
  call void @llvm.assume(i1 %22)
  %23 = getelementptr inbounds nuw [85 x %struct.cachedesc], ptr @cacheinfo, i64 0, i64 %6
  %24 = load i32, ptr %23, align 16
  %25 = call ptr @get_rel_name(i32 noundef %24) #11
  %26 = load ptr, ptr %7, align 8
  %27 = getelementptr inbounds nuw i8, ptr %26, i64 8
  %28 = load ptr, ptr %27, align 8
  %29 = load i32, ptr %28, align 8
  %30 = sext i32 %29 to i64
  %31 = shl nsw i64 %30, 4
  %32 = getelementptr i8, ptr %28, i64 %31
  %33 = getelementptr i8, ptr %32, i64 24
  %34 = sext i16 %2 to i64
  %35 = getelementptr %struct.FormData_pg_attribute, ptr %33, i64 %34
  %36 = getelementptr i8, ptr %35, i64 -96
  %37 = call i32 (ptr, ...) @errmsg_internal(ptr noundef nonnull @.str.3, ptr noundef %25, ptr noundef nonnull %36) #11
  call void @errfinish(ptr noundef nonnull @.str.1, i32 noundef 644, ptr noundef nonnull @__func__.SysCacheGetAttrNotNull) #11
  unreachable

38:                                               ; preds = %SysCacheGetAttr.exit
  call void @llvm.lifetime.end.p0(i64 1, ptr nonnull %4) #11
  ret i64 %18
}